; Function Attrs: mustprogress uwtable
define void @_ZNK2cv3dnn14dnn4_v2024122318TextDetectionModel6detectERKNS_11_InputArrayERSt6vectorIS6_INS_6Point_IiEESaIS8_EESaISA_EE(ptr noundef nonnull readonly align 8 captures(none) dereferenceable(16) %0, ptr noundef nonnull align 8 dereferenceable(24) %1, ptr noundef nonnull align 8 dereferenceable(24) %2) local_unnamed_addr #4 align 2 personality ptr @__gxx_personality_v0 {
  %4 = alloca %"class.std::__cxx11::basic_string", align 8
  %5 = alloca %"class.std::allocator.4", align 1
  %6 = alloca %"class.std::vector.62", align 8
  call void @llvm.lifetime.start.p0(i64 24, ptr nonnull %6) #32
  %7 = load ptr, ptr %0, align 8, !tbaa !51
  %.not.i = icmp eq ptr %7, null
  br i1 %.not.i, label %8, label %_ZN2cv3dnn23TextDetectionModel_Impl4fromERKSt10shared_ptrINS0_14dnn4_v202412235Model4ImplEE.exit

8:                                                ; preds = %3
  call void @llvm.lifetime.start.p0(i64 32, ptr nonnull %4) #32
  call void @llvm.lifetime.start.p0(i64 1, ptr nonnull %5) #32
  call void @_ZNSt7__cxx1112basic_stringIcSt11char_traitsIcESaIcEEC2EPKcRKS3_(ptr noundef nonnull align 8 dereferenceable(32) %4, ptr noundef nonnull @.str.17, ptr noundef nonnull align 1 dereferenceable(1) %5)
  invoke void @_ZN2cv5errorEiRKNSt7__cxx1112basic_stringIcSt11char_traitsIcESaIcEEEPKcS9_i(i32 noundef -215, ptr noundef nonnull align 8 dereferenceable(32) %4, ptr noundef nonnull @__func__._ZN2cv3dnn25TextRecognitionModel_Impl4fromERKSt10shared_ptrINS0_14dnn4_v202412235Model4ImplEE, ptr noundef nonnull @.str.3, i32 noundef 1056) #33
          to label %9 unwind label %10

9:                                                ; preds = %8
  unreachable

10:                                               ; preds = %8
  %11 = landingpad { ptr, i32 }
          cleanup
  %12 = load ptr, ptr %4, align 8, !tbaa !70
  %13 = getelementptr inbounds nuw i8, ptr %4, i64 16
  %14 = icmp eq ptr %12, %13
  br i1 %14, label %_ZNKSt7__cxx1112basic_stringIcSt11char_traitsIcESaIcEE11_M_is_localEv.exit.thread.i.i.i, label %_ZNKSt7__cxx1112basic_stringIcSt11char_traitsIcESaIcEE11_M_is_localEv.exit.i.i.i

_ZNKSt7__cxx1112basic_stringIcSt11char_traitsIcESaIcEE11_M_is_localEv.exit.thread.i.i.i: ; preds = %10
  %15 = getelementptr inbounds nuw i8, ptr %4, i64 8
  %16 = load i64, ptr %15, align 8, !tbaa !66
  %17 = icmp ult i64 %16, 16
  call void @llvm.assume(i1 %17)
  br label %_ZNSt7__cxx1112basic_stringIcSt11char_traitsIcESaIcEED2Ev.exit.i

_ZNKSt7__cxx1112basic_stringIcSt11char_traitsIcESaIcEE11_M_is_localEv.exit.i.i.i: ; preds = %10
  call void @_ZdlPv(ptr noundef %12) #31
  br label %_ZNSt7__cxx1112basic_stringIcSt11char_traitsIcESaIcEED2Ev.exit.i

common.resume:                                    ; preds = %30, %_ZNSt7__cxx1112basic_stringIcSt11char_traitsIcESaIcEED2Ev.exit.i
  %common.resume.op = phi { ptr, i32 } [ %11, %_ZNSt7__cxx1112basic_stringIcSt11char_traitsIcESaIcEED2Ev.exit.i ], [ %31, %30 ]
  resume { ptr, i32 } %common.resume.op

_ZNSt7__cxx1112basic_stringIcSt11char_traitsIcESaIcEED2Ev.exit.i: ; preds = %_ZNKSt7__cxx1112basic_stringIcSt11char_traitsIcESaIcEE11_M_is_localEv.exit.i.i.i, %_ZNKSt7__cxx1112basic_stringIcSt11char_traitsIcESaIcEE11_M_is_localEv.exit.thread.i.i.i
  call void @llvm.lifetime.end.p0(i64 1, ptr nonnull %5) #32
  call void @llvm.lifetime.end.p0(i64 32, ptr nonnull %4) #32
  br label %common.resume

_ZN2cv3dnn23TextDetectionModel_Impl4fromERKSt10shared_ptrINS0_14dnn4_v202412235Model4ImplEE.exit: ; preds = %3
  %18 = load ptr, ptr %7, align 8, !tbaa !15
  %19 = getelementptr inbounds nuw i8, ptr %18, i64 64
  %20 = load ptr, ptr %19, align 8
  call void %20(ptr dead_on_unwind nonnull writable sret(%"class.std::vector.62") align 8 %6, ptr noundef nonnull align 8 dereferenceable(224) %7, ptr noundef nonnull align 8 dereferenceable(24) %1)
  invoke fastcc void @_ZN2cv3dnnL5to32sERKSt6vectorIS1_INS_6Point_IfEESaIS3_EESaIS5_EERS1_IS1_INS2_IiEESaISA_EESaISC_EE(ptr noundef nonnull align 8 dereferenceable(24) %6, ptr noundef nonnull align 8 dereferenceable(24) %2)
          to label %21 unwind label %30

21:                                               ; preds = %_ZN2cv3dnn23TextDetectionModel_Impl4fromERKSt10shared_ptrINS0_14dnn4_v202412235Model4ImplEE.exit
  %22 = load ptr, ptr %6, align 8, !tbaa !422
  %23 = getelementptr inbounds nuw i8, ptr %6, i64 8
  %24 = load ptr, ptr %23, align 8, !tbaa !425
  %.not4.i.i.i.i = icmp eq ptr %22, %24
  br i1 %.not4.i.i.i.i, label %_ZSt8_DestroyIPSt6vectorIN2cv6Point_IfEESaIS3_EES5_EvT_S7_RSaIT0_E.exit.i, label %.lr.ph.i.i.i.i

.lr.ph.i.i.i.i:                                   ; preds = %21, %_ZSt8_DestroyISt6vectorIN2cv6Point_IfEESaIS3_EEEvPT_.exit.i.i.i.i
  %.05.i.i.i.i = phi ptr [ %27, %_ZSt8_DestroyISt6vectorIN2cv6Point_IfEESaIS3_EEEvPT_.exit.i.i.i.i ], [ %22, %21 ]
  %25 = load ptr, ptr %.05.i.i.i.i, align 8, !tbaa !426
  %.not.i.i.i.i.i.i.i.i = icmp eq ptr %25, null
  br i1 %.not.i.i.i.i.i.i.i.i, label %_ZSt8_DestroyISt6vectorIN2cv6Point_IfEESaIS3_EEEvPT_.exit.i.i.i.i, label %26

26:                                               ; preds = %.lr.ph.i.i.i.i
  call void @_ZdlPv(ptr noundef nonnull %25) #31
  br label %_ZSt8_DestroyISt6vectorIN2cv6Point_IfEESaIS3_EEEvPT_.exit.i.i.i.i

_ZSt8_DestroyISt6vectorIN2cv6Point_IfEESaIS3_EEEvPT_.exit.i.i.i.i: ; preds = %26, %.lr.ph.i.i.i.i
  %27 = getelementptr inbounds nuw i8, ptr %.05.i.i.i.i, i64 24
  %.not.i.i.i.i = icmp eq ptr %27, %24
  br i1 %.not.i.i.i.i, label %_ZSt8_DestroyIPSt6vectorIN2cv6Point_IfEESaIS3_EES5_EvT_S7_RSaIT0_E.exitthread-pre-split.i, label %.lr.ph.i.i.i.i, !llvm.loop !427

_ZSt8_DestroyIPSt6vectorIN2cv6Point_IfEESaIS3_EES5_EvT_S7_RSaIT0_E.exitthread-pre-split.i: ; preds = %_ZSt8_DestroyISt6vectorIN2cv6Point_IfEESaIS3_EEEvPT_.exit.i.i.i.i
  %.pr.i = load ptr, ptr %6, align 8, !tbaa !422
  br label %_ZSt8_DestroyIPSt6vectorIN2cv6Point_IfEESaIS3_EES5_EvT_S7_RSaIT0_E.exit.i

_ZSt8_DestroyIPSt6vectorIN2cv6Point_IfEESaIS3_EES5_EvT_S7_RSaIT0_E.exit.i: ; preds = %_ZSt8_DestroyIPSt6vectorIN2cv6Point_IfEESaIS3_EES5_EvT_S7_RSaIT0_E.exitthread-pre-split.i, %21
  %28 = phi ptr [ %.pr.i, %_ZSt8_DestroyIPSt6vectorIN2cv6Point_IfEESaIS3_EES5_EvT_S7_RSaIT0_E.exitthread-pre-split.i ], [ %22, %21 ]
  %.not.i.i.i = icmp eq ptr %28, null
  br i1 %.not.i.i.i, label %_ZNSt6vectorIS_IN2cv6Point_IfEESaIS2_EESaIS4_EED2Ev.exit, label %29

29:                                               ; preds = %_ZSt8_DestroyIPSt6vectorIN2cv6Point_IfEESaIS3_EES5_EvT_S7_RSaIT0_E.exit.i
  call void @_ZdlPv(ptr noundef nonnull %28) #31
  br label %_ZNSt6vectorIS_IN2cv6Point_IfEESaIS2_EESaIS4_EED2Ev.exit

_ZNSt6vectorIS_IN2cv6Point_IfEESaIS2_EESaIS4_EED2Ev.exit: ; preds = %_ZSt8_DestroyIPSt6vectorIN2cv6Point_IfEESaIS3_EES5_EvT_S7_RSaIT0_E.exit.i, %29
  call void @llvm.lifetime.end.p0(i64 24, ptr nonnull %6) #32
  ret void

30:                                               ; preds = %_ZN2cv3dnn23TextDetectionModel_Impl4fromERKSt10shared_ptrINS0_14dnn4_v202412235Model4ImplEE.exit
  %31 = landingpad { ptr, i32 }
          cleanup
  call void @_ZNSt6vectorIS_IN2cv6Point_IfEESaIS2_EESaIS4_EED2Ev(ptr noundef nonnull align 8 dereferenceable(24) %6) #32
  call void @llvm.lifetime.end.p0(i64 24, ptr nonnull %6) #32
  br label %common.resume
}